; Function Attrs: mustprogress uwtable
define void @_ZN5osgeo4proj6common9DataEpochC2ERKS2_(ptr noundef nonnull writeonly align 8 captures(none) dereferenceable(8) %0, ptr noundef nonnull readonly align 8 captures(none) dereferenceable(8) %1) unnamed_addr #0 align 2 personality ptr @__gxx_personality_v0 {
  %3 = load ptr, ptr %1, align 8, !tbaa !295
  tail call void @llvm.experimental.noalias.scope.decl(metadata !300)
  %4 = tail call noalias noundef nonnull dereferenceable(24) ptr @_Znwm(i64 noundef 24) #38, !noalias !300
  invoke void @_ZN5osgeo4proj6common7MeasureC1ERKS2_(ptr noundef nonnull align 8 dereferenceable(24) %4, ptr noundef nonnull align 8 dereferenceable(24) %3)
          to label %_ZSt11make_uniqueIN5osgeo4proj6common9DataEpoch7PrivateEJRS4_EENSt8__detail9_MakeUniqIT_E15__single_objectEDpOT0_.exit unwind label %5, !noalias !300

5:                                                ; preds = %2
  %6 = landingpad { ptr, i32 }
          cleanup
  tail call void @_ZdlPvm(ptr noundef nonnull %4, i64 noundef 24) #39, !noalias !300
  resume { ptr, i32 } %6

_ZSt11make_uniqueIN5osgeo4proj6common9DataEpoch7PrivateEJRS4_EENSt8__detail9_MakeUniqIT_E15__single_objectEDpOT0_.exit: ; preds = %2
  store ptr %4, ptr %0, align 8, !tbaa !295, !alias.scope !300
  ret void
}